; ModuleID = '23/99.c'
source_filename = "23/99.c"
target datalayout = "e-m:e-p270:32:32-p271:32:32-p272:64:64-i64:64-f80:128-n8:16:32:64-S128"
target triple = "x86_64-pc-linux-gnu"

@.str = private unnamed_addr constant [4 x i8] c"%s \00", align 1
@.str.1 = private unnamed_addr constant [4 x i8] c"%s\0A\00", align 1

; Function Attrs: noinline nounwind uwtable
define dso_local void @main() #0 {
  %1 = alloca i32, align 4
  %2 = alloca i32, align 4
  %3 = alloca i32, align 4
  %4 = alloca i32, align 4
  %5 = alloca i32, align 4
  %6 = alloca [100 x i8], align 16
  %7 = alloca [100 x [100 x i8]], align 16
  %8 = getelementptr inbounds [100 x i8], [100 x i8]* %6, i64 0, i64 0
  %9 = call i32 (i8*, ...) bitcast (i32 (...)* @gets to i32 (i8*, ...)*)(i8* %8)
  store i32 0, i32* %1, align 4
  store i32 0, i32* %2, align 4
  br label %10

10:                                               ; preds = %76, %0
  %11 = load i32, i32* %1, align 4
  %12 = sext i32 %11 to i64
  %13 = getelementptr inbounds [100 x i8], [100 x i8]* %6, i64 0, i64 %12
  %14 = load i8, i8* %13, align 1
  %15 = sext i8 %14 to i32
  %16 = icmp ne i32 %15, 0
  br i1 %16, label %17, label %81

17:                                               ; preds = %10
  %18 = load i32, i32* %1, align 4
  store i32 %18, i32* %4, align 4
  store i32 0, i32* %3, align 4
  br label %19

19:                                               ; preds = %35, %17
  %20 = load i32, i32* %1, align 4
  %21 = sext i32 %20 to i64
  %22 = getelementptr inbounds [100 x i8], [100 x i8]* %6, i64 0, i64 %21
  %23 = load i8, i8* %22, align 1
  %24 = sext i8 %23 to i32
  %25 = icmp ne i32 %24, 32
  br i1 %25, label %26, label %33

26:                                               ; preds = %19
  %27 = load i32, i32* %1, align 4
  %28 = sext i32 %27 to i64
  %29 = getelementptr inbounds [100 x i8], [100 x i8]* %6, i64 0, i64 %28
  %30 = load i8, i8* %29, align 1
  %31 = sext i8 %30 to i32
  %32 = icmp ne i32 %31, 0
  br label %33

33:                                               ; preds = %26, %19
  %34 = phi i1 [ false, %19 ], [ %32, %26 ]
  br i1 %34, label %35, label %50

35:                                               ; preds = %33
  %36 = load i32, i32* %1, align 4
  %37 = sext i32 %36 to i64
  %38 = getelementptr inbounds [100 x i8], [100 x i8]* %6, i64 0, i64 %37
  %39 = load i8, i8* %38, align 1
  %40 = load i32, i32* %2, align 4
  %41 = sext i32 %40 to i64
  %42 = getelementptr inbounds [100 x [100 x i8]], [100 x [100 x i8]]* %7, i64 0, i64 %41
  %43 = load i32, i32* %1, align 4
  %44 = load i32, i32* %4, align 4
  %45 = sub nsw i32 %43, %44
  %46 = sext i32 %45 to i64
  %47 = getelementptr inbounds [100 x i8], [100 x i8]* %42, i64 0, i64 %46
  store i8 %39, i8* %47, align 1
  %48 = load i32, i32* %1, align 4
  %49 = add nsw i32 %48, 1
  store i32 %49, i32* %1, align 4
  store i32 1, i32* %3, align 4
  br label %19

50:                                               ; preds = %33
  %51 = load i32, i32* %3, align 4
  %52 = icmp eq i32 %51, 1
  br i1 %52, label %53, label %72

53:                                               ; preds = %50
  %54 = load i32, i32* %2, align 4
  %55 = sext i32 %54 to i64
  %56 = getelementptr inbounds [100 x [100 x i8]], [100 x [100 x i8]]* %7, i64 0, i64 %55
  %57 = load i32, i32* %1, align 4
  %58 = load i32, i32* %4, align 4
  %59 = sub nsw i32 %57, %58
  %60 = sext i32 %59 to i64
  %61 = getelementptr inbounds [100 x i8], [100 x i8]* %56, i64 0, i64 %60
  store i8 0, i8* %61, align 1
  %62 = load i32, i32* %1, align 4
  %63 = sext i32 %62 to i64
  %64 = getelementptr inbounds [100 x i8], [100 x i8]* %6, i64 0, i64 %63
  %65 = load i8, i8* %64, align 1
  %66 = sext i8 %65 to i32
  %67 = icmp eq i32 %66, 0
  br i1 %67, label %68, label %71

68:                                               ; preds = %53
  %69 = load i32, i32* %1, align 4
  %70 = add nsw i32 %69, -1
  store i32 %70, i32* %1, align 4
  br label %71

71:                                               ; preds = %68, %53
  br label %75

72:                                               ; preds = %50
  %73 = load i32, i32* %2, align 4
  %74 = add nsw i32 %73, -1
  store i32 %74, i32* %2, align 4
  br label %75

75:                                               ; preds = %72, %71
  br label %76

76:                                               ; preds = %75
  %77 = load i32, i32* %1, align 4
  %78 = add nsw i32 %77, 1
  store i32 %78, i32* %1, align 4
  %79 = load i32, i32* %2, align 4
  %80 = add nsw i32 %79, 1
  store i32 %80, i32* %2, align 4
  br label %10

81:                                               ; preds = %10
  %82 = load i32, i32* %2, align 4
  %83 = sub nsw i32 %82, 1
  store i32 %83, i32* %5, align 4
  br label %84

84:                                               ; preds = %93, %81
  %85 = load i32, i32* %5, align 4
  %86 = icmp sgt i32 %85, 0
  br i1 %86, label %87, label %96

87:                                               ; preds = %84
  %88 = load i32, i32* %5, align 4
  %89 = sext i32 %88 to i64
  %90 = getelementptr inbounds [100 x [100 x i8]], [100 x [100 x i8]]* %7, i64 0, i64 %89
  %91 = getelementptr inbounds [100 x i8], [100 x i8]* %90, i64 0, i64 0
  %92 = call i32 (i8*, ...) @printf(i8* getelementptr inbounds ([4 x i8], [4 x i8]* @.str, i64 0, i64 0), i8* %91)
  br label %93

93:                                               ; preds = %87
  %94 = load i32, i32* %5, align 4
  %95 = add nsw i32 %94, -1
  store i32 %95, i32* %5, align 4
  br label %84

96:                                               ; preds = %84
  %97 = getelementptr inbounds [100 x [100 x i8]], [100 x [100 x i8]]* %7, i64 0, i64 0
  %98 = getelementptr inbounds [100 x i8], [100 x i8]* %97, i64 0, i64 0
  %99 = call i32 (i8*, ...) @printf(i8* getelementptr inbounds ([4 x i8], [4 x i8]* @.str.1, i64 0, i64 0), i8* %98)
  ret void
}

declare dso_local i32 @gets(...) #1

declare dso_local i32 @printf(i8*, ...) #1


!llvm.module.flags = !{!0}
!llvm.ident = !{!1}

!0 = !{i32 1, !"wchar_size", i32 4}
!1 = !{!"clang version 10.0.0-4ubuntu1 "}
